; Function Attrs: mustprogress nofree nounwind willreturn memory(read, inaccessiblemem: none) uwtable
define noundef zeroext i1 @_ZNK6casadi16SparsityInternal8is_equalExxPKxS2_(ptr nocapture noundef nonnull readonly align 8 dereferenceable(56) %0, i64 noundef %1, i64 noundef %2, ptr nocapture noundef readonly %3, ptr nocapture noundef readonly %4) local_unnamed_addr #14 align 2 {
  %6 = getelementptr inbounds i8, ptr %0, i64 24
  %7 = load ptr, ptr %6, align 8
  %.ptr = getelementptr inbounds i8, ptr %7, i64 16
  %8 = getelementptr inbounds i8, ptr %7, i64 8
  %9 = load i64, ptr %8, align 8
  %.idx = shl nsw i64 %9, 3
  %10 = getelementptr i8, ptr %7, i64 %.idx
  %.ptr23 = getelementptr i8, ptr %10, i64 16
  %.add22 = add i64 %.idx, 24
  %.ptr24 = getelementptr inbounds i8, ptr %7, i64 %.add22
  %11 = getelementptr inbounds i64, ptr %3, i64 %2
  %12 = load i64, ptr %11, align 8
  %13 = load i64, ptr %.ptr23, align 8
  %.not = icmp eq i64 %13, %12
  %.not14 = icmp eq i64 %9, %2
  %or.cond = and i1 %.not14, %.not
  br i1 %or.cond, label %14, label %_ZSt5equalIPKxS1_EbT_S2_T0_.exit20

14:                                               ; preds = %5
  %15 = load i64, ptr %7, align 8
  %.not15 = icmp eq i64 %15, %1
  br i1 %.not15, label %16, label %_ZSt5equalIPKxS1_EbT_S2_T0_.exit20

16:                                               ; preds = %14
  %17 = mul nsw i64 %1, %2
  %18 = icmp eq i64 %12, %17
  br i1 %18, label %_ZSt5equalIPKxS1_EbT_S2_T0_.exit20, label %19

19:                                               ; preds = %16
  %.not.i.i.i.i = icmp eq i64 %.add22, 16
  br i1 %.not.i.i.i.i, label %_ZSt5equalIPKxS1_EbT_S2_T0_.exit.thread, label %_ZSt5equalIPKxS1_EbT_S2_T0_.exit

_ZSt5equalIPKxS1_EbT_S2_T0_.exit:                 ; preds = %19
  %gepdiff = add nuw i64 %.idx, 8
  %bcmp.i.i.i.i = tail call i32 @bcmp(ptr noundef nonnull dereferenceable(1) %.ptr, ptr noundef nonnull dereferenceable(1) %3, i64 %gepdiff)
  %.not7.i.i.i.i = icmp eq i32 %bcmp.i.i.i.i, 0
  br i1 %.not7.i.i.i.i, label %_ZSt5equalIPKxS1_EbT_S2_T0_.exit.thread, label %_ZSt5equalIPKxS1_EbT_S2_T0_.exit20

_ZSt5equalIPKxS1_EbT_S2_T0_.exit.thread:          ; preds = %19, %_ZSt5equalIPKxS1_EbT_S2_T0_.exit
  %.not.i.i.i.i16 = icmp eq i64 %12, 0
  br i1 %.not.i.i.i.i16, label %_ZSt5equalIPKxS1_EbT_S2_T0_.exit20, label %20

20:                                               ; preds = %_ZSt5equalIPKxS1_EbT_S2_T0_.exit.thread
  %.idx26 = shl nsw i64 %12, 3
  %bcmp.i.i.i.i17 = tail call i32 @bcmp(ptr nonnull %.ptr24, ptr %4, i64 %.idx26)
  %.not7.i.i.i.i18 = icmp eq i32 %bcmp.i.i.i.i17, 0
  br label %_ZSt5equalIPKxS1_EbT_S2_T0_.exit20

_ZSt5equalIPKxS1_EbT_S2_T0_.exit20:               ; preds = %20, %_ZSt5equalIPKxS1_EbT_S2_T0_.exit.thread, %_ZSt5equalIPKxS1_EbT_S2_T0_.exit, %16, %5, %14
  %.0 = phi i1 [ false, %14 ], [ false, %5 ], [ true, %16 ], [ false, %_ZSt5equalIPKxS1_EbT_S2_T0_.exit ], [ %.not7.i.i.i.i18, %20 ], [ true, %_ZSt5equalIPKxS1_EbT_S2_T0_.exit.thread ]
  ret i1 %.0
}